target datalayout = "e-m:e-p270:32:32-p271:32:32-p272:64:64-i64:64-i128:128-f80:128-n8:16:32:64-S128"
target triple = "x86_64-pc-linux-gnu"

@.str.4 = private unnamed_addr constant [100 x i8] c"generated/home/dtcxzyw/WorkSpace/Projects/compilers/llvm-opt-benchmark/bench/hdf5/hdf5/src/H5Oint.c\00", align 1
@__func__.H5O_create = private unnamed_addr constant [11 x i8] c"H5O_create\00", align 1
@H5E_OHDR_g = external global i64, align 8
@H5E_BADVALUE_g = external global i64, align 8
@.str.5 = private unnamed_addr constant [32 x i8] c"Can't instantiate object header\00", align 1
@.str.6 = private unnamed_addr constant [34 x i8] c"Can't apply object header to file\00", align 1
@H5E_CANTFREE_g = external global i64, align 8
@.str.7 = private unnamed_addr constant [27 x i8] c"can't delete object header\00", align 1

; Function Attrs: nounwind uwtable
define i32 @H5O_create(ptr noundef %0, i64 noundef %1, i64 noundef %2, i64 noundef %3, ptr noundef %4) #0 {
  %6 = alloca ptr, align 8
  %7 = alloca i64, align 8
  %8 = alloca i64, align 8
  %9 = alloca i64, align 8
  %10 = alloca ptr, align 8
  %11 = alloca ptr, align 8
  %12 = alloca i32, align 4
  %13 = alloca i8, align 1
  store ptr %0, ptr %6, align 8
  store i64 %1, ptr %7, align 8
  store i64 %2, ptr %8, align 8
  store i64 %3, ptr %9, align 8
  store ptr %4, ptr %10, align 8
  store ptr null, ptr %11, align 8
  store i32 0, ptr %12, align 4
  store i8 0, ptr %13, align 1
  %14 = load ptr, ptr %6, align 8
  %15 = load i64, ptr %9, align 8
  %16 = call ptr @H5O_create_ohdr(ptr noundef %14, i64 noundef %15)
  store ptr %16, ptr %11, align 8
  %17 = load ptr, ptr %11, align 8
  %18 = icmp eq ptr null, %17
  br i1 %18, label %19, label %34

19:                                               ; preds = %5
  br label %20

20:                                               ; preds = %19
  br label %21

21:                                               ; preds = %20
  br label %22

22:                                               ; preds = %21
  %23 = load i64, ptr @H5E_OHDR_g, align 8
  %24 = load i64, ptr @H5E_BADVALUE_g, align 8
  %25 = call i32 (ptr, ptr, i32, i64, i64, ptr, ...) @H5E_printf_stack(ptr noundef @.str.4, ptr noundef @__func__.H5O_create, i32 noundef 280, i64 noundef %23, i64 noundef %24, ptr noundef @.str.5)
  br label %26

26:                                               ; preds = %22
  store i8 1, ptr %13, align 1
  %27 = load i8, ptr %13, align 1
  %28 = trunc i8 %27 to i1
  %29 = zext i1 %28 to i8
  store i8 %29, ptr %13, align 1
  br label %30

30:                                               ; preds = %26
  br label %31

31:                                               ; preds = %30
  store i32 -1, ptr %12, align 4
  br label %59

32:                                               ; No predecessors!
  br label %33

33:                                               ; preds = %32
  br label %34

34:                                               ; preds = %33, %5
  %35 = load ptr, ptr %6, align 8
  %36 = load ptr, ptr %11, align 8
  %37 = load i64, ptr %9, align 8
  %38 = load i64, ptr %7, align 8
  %39 = load i64, ptr %8, align 8
  %40 = load ptr, ptr %10, align 8
  %41 = call i32 @H5O_apply_ohdr(ptr noundef %35, ptr noundef %36, i64 noundef %37, i64 noundef %38, i64 noundef %39, ptr noundef %40)
  %42 = icmp slt i32 %41, 0
  br i1 %42, label %43, label %58

43:                                               ; preds = %34
  br label %44

44:                                               ; preds = %43
  br label %45

45:                                               ; preds = %44
  br label %46

46:                                               ; preds = %45
  %47 = load i64, ptr @H5E_OHDR_g, align 8
  %48 = load i64, ptr @H5E_BADVALUE_g, align 8
  %49 = call i32 (ptr, ptr, i32, i64, i64, ptr, ...) @H5E_printf_stack(ptr noundef @.str.4, ptr noundef @__func__.H5O_create, i32 noundef 285, i64 noundef %47, i64 noundef %48, ptr noundef @.str.6)
  br label %50

50:                                               ; preds = %46
  store i8 1, ptr %13, align 1
  %51 = load i8, ptr %13, align 1
  %52 = trunc i8 %51 to i1
  %53 = zext i1 %52 to i8
  store i8 %53, ptr %13, align 1
  br label %54

54:                                               ; preds = %50
  br label %55

55:                                               ; preds = %54
  store i32 -1, ptr %12, align 4
  br label %59

56:                                               ; No predecessors!
  br label %57

57:                                               ; preds = %56
  br label %58

58:                                               ; preds = %57, %34
  br label %59

59:                                               ; preds = %58, %55, %31
  %60 = load i32, ptr %12, align 4
  %61 = icmp eq i32 -1, %60
  br i1 %61, label %62, label %82

62:                                               ; preds = %59
  %63 = load ptr, ptr %11, align 8
  %64 = icmp ne ptr null, %63
  br i1 %64, label %65, label %82

65:                                               ; preds = %62
  %66 = load ptr, ptr %11, align 8
  %67 = call i32 @H5O__free(ptr noundef %66, i1 noundef zeroext true)
  %68 = icmp slt i32 %67, 0
  br i1 %68, label %69, label %82

69:                                               ; preds = %65
  br label %70

70:                                               ; preds = %69
  br label %71

71:                                               ; preds = %70
  br label %72

72:                                               ; preds = %71
  %73 = load i64, ptr @H5E_OHDR_g, align 8
  %74 = load i64, ptr @H5E_CANTFREE_g, align 8
  %75 = call i32 (ptr, ptr, i32, i64, i64, ptr, ...) @H5E_printf_stack(ptr noundef @.str.4, ptr noundef @__func__.H5O_create, i32 noundef 289, i64 noundef %73, i64 noundef %74, ptr noundef @.str.7)
  br label %76

76:                                               ; preds = %72
  store i8 1, ptr %13, align 1
  %77 = load i8, ptr %13, align 1
  %78 = trunc i8 %77 to i1
  %79 = zext i1 %78 to i8
  store i8 %79, ptr %13, align 1
  br label %80

80:                                               ; preds = %76
  store i32 -1, ptr %12, align 4
  br label %81

81:                                               ; preds = %80
  br label %82

82:                                               ; preds = %81, %65, %62, %59
  %83 = load i32, ptr %12, align 4
  ret i32 %83
}