; Function Attrs: nounwind uwtable
define range(i32 -1, 1) i32 @H5O_create(ptr noundef %0, i64 noundef %1, i64 noundef %2, i64 noundef %3, ptr nocapture noundef %4) local_unnamed_addr #1 {
  %6 = tail call ptr @H5O_create_ohdr(ptr noundef %0, i64 noundef %3)
  %7 = icmp eq ptr %6, null
  br i1 %7, label %8, label %12

8:                                                ; preds = %5
  %9 = load i64, ptr @H5E_OHDR_g, align 8
  %10 = load i64, ptr @H5E_BADVALUE_g, align 8
  %11 = tail call i32 (ptr, ptr, i32, i64, i64, ptr, ...) @H5E_printf_stack(ptr noundef nonnull @.str.4, ptr noundef nonnull @__func__.H5O_create, i32 noundef 280, i64 noundef %9, i64 noundef %10, ptr noundef nonnull @.str.5) #11
  br label %.thread

12:                                               ; preds = %5
  %13 = tail call i32 @H5O_apply_ohdr(ptr noundef %0, ptr noundef nonnull %6, i64 noundef %3, i64 noundef %1, i64 noundef %2, ptr noundef %4)
  %14 = icmp slt i32 %13, 0
  br i1 %14, label %15, label %.thread

15:                                               ; preds = %12
  %16 = load i64, ptr @H5E_OHDR_g, align 8
  %17 = load i64, ptr @H5E_BADVALUE_g, align 8
  %18 = tail call i32 (ptr, ptr, i32, i64, i64, ptr, ...) @H5E_printf_stack(ptr noundef nonnull @.str.4, ptr noundef nonnull @__func__.H5O_create, i32 noundef 285, i64 noundef %16, i64 noundef %17, ptr noundef nonnull @.str.6) #11
  %19 = tail call i32 @H5O__free(ptr noundef nonnull %6, i1 zeroext poison)
  %20 = icmp slt i32 %19, 0
  br i1 %20, label %21, label %.thread

21:                                               ; preds = %15
  %22 = load i64, ptr @H5E_OHDR_g, align 8
  %23 = load i64, ptr @H5E_CANTFREE_g, align 8
  %24 = tail call i32 (ptr, ptr, i32, i64, i64, ptr, ...) @H5E_printf_stack(ptr noundef nonnull @.str.4, ptr noundef nonnull @__func__.H5O_create, i32 noundef 289, i64 noundef %22, i64 noundef %23, ptr noundef nonnull @.str.7) #11
  br label %.thread

.thread:                                          ; preds = %8, %12, %21, %15
  %.1 = phi i32 [ -1, %21 ], [ -1, %15 ], [ 0, %12 ], [ -1, %8 ]
  ret i32 %.1
}